target datalayout = "e-m:e-p270:32:32-p271:32:32-p272:64:64-i64:64-i128:128-f80:128-n8:16:32:64-S128"
target triple = "x86_64-pc-linux-gnu"

%struct.malloc_state = type { i32, i32, i64, i64, ptr, ptr, ptr, i64, i64, i64, [66 x ptr], [32 x ptr], i64, i64, i64, i32, i32, %struct.malloc_segment, ptr, i64 }
%struct.malloc_segment = type { ptr, i64, ptr, i32 }

; Function Attrs: nounwind uwtable
define internal i32 @spin_acquire_lock(ptr noundef %0) #0 {
  %2 = alloca ptr, align 8
  %3 = alloca i32, align 4
  store ptr %0, ptr %2, align 8, !tbaa !16
  call void @llvm.lifetime.start.p0(i64 4, ptr %3) #9
  store i32 0, ptr %3, align 4, !tbaa !14
  br label %4

4:                                                ; preds = %21, %1
  %5 = load ptr, ptr %2, align 8, !tbaa !16
  %6 = load volatile i32, ptr %5, align 4, !tbaa !14
  %7 = icmp ne i32 %6, 0
  br i1 %7, label %12, label %8

8:                                                ; preds = %4
  %9 = load ptr, ptr %2, align 8, !tbaa !16
  %10 = atomicrmw xchg ptr %9, i32 1 seq_cst, align 4
  %11 = icmp ne i32 %10, 0
  br label %12

12:                                               ; preds = %8, %4
  %13 = phi i1 [ true, %4 ], [ %11, %8 ]
  br i1 %13, label %14, label %22

14:                                               ; preds = %12
  %15 = load i32, ptr %3, align 4, !tbaa !14
  %16 = add nsw i32 %15, 1
  store i32 %16, ptr %3, align 4, !tbaa !14
  %17 = and i32 %16, 63
  %18 = icmp eq i32 %17, 0
  br i1 %18, label %19, label %21

19:                                               ; preds = %14
  %20 = call i32 @sched_yield() #9
  br label %21

21:                                               ; preds = %19, %14
  br label %4, !llvm.loop !34

22:                                               ; preds = %12
  call void @llvm.lifetime.end.p0(i64 4, ptr %3) #9
  ret i32 0
}

; Function Attrs: nounwind uwtable
define hidden i32 @mspace_track_large_chunks(ptr noundef %0, i32 noundef %1) #0 {
  %3 = alloca ptr, align 8
  %4 = alloca i32, align 4
  %5 = alloca i32, align 4
  %6 = alloca ptr, align 8
  store ptr %0, ptr %3, align 8, !tbaa !16
  store i32 %1, ptr %4, align 4, !tbaa !14
  call void @llvm.lifetime.start.p0(i64 4, ptr %5) #9
  store i32 0, ptr %5, align 4, !tbaa !14
  call void @llvm.lifetime.start.p0(i64 8, ptr %6) #9
  %7 = load ptr, ptr %3, align 8, !tbaa !16
  store ptr %7, ptr %6, align 8, !tbaa !16
  %8 = load ptr, ptr %6, align 8, !tbaa !16
  %9 = getelementptr inbounds nuw %struct.malloc_state, ptr %8, i32 0, i32 15
  %10 = load i32, ptr %9, align 8, !tbaa !10
  %11 = and i32 %10, 2
  %12 = icmp ne i32 %11, 0
  br i1 %12, label %13, label %24

13:                                               ; preds = %2
  %14 = load ptr, ptr %6, align 8, !tbaa !16
  %15 = getelementptr inbounds nuw %struct.malloc_state, ptr %14, i32 0, i32 16
  %16 = atomicrmw xchg ptr %15, i32 1 seq_cst, align 4
  %17 = icmp ne i32 %16, 0
  br i1 %17, label %18, label %23

18:                                               ; preds = %13
  %19 = load ptr, ptr %6, align 8, !tbaa !16
  %20 = getelementptr inbounds nuw %struct.malloc_state, ptr %19, i32 0, i32 16
  %21 = call i32 @spin_acquire_lock(ptr noundef %20)
  %22 = icmp ne i32 %21, 0
  br i1 %22, label %60, label %25

23:                                               ; preds = %13
  br i1 false, label %60, label %25

24:                                               ; preds = %2
  br i1 false, label %60, label %25

25:                                               ; preds = %24, %23, %18
  %26 = load ptr, ptr %6, align 8, !tbaa !16
  %27 = getelementptr inbounds nuw %struct.malloc_state, ptr %26, i32 0, i32 15
  %28 = load i32, ptr %27, align 8, !tbaa !10
  %29 = zext i32 %28 to i64
  %30 = and i64 %29, 1
  %31 = icmp ne i64 %30, 0
  br i1 %31, label %33, label %32

32:                                               ; preds = %25
  store i32 1, ptr %5, align 4, !tbaa !14
  br label %33

33:                                               ; preds = %32, %25
  %34 = load i32, ptr %4, align 4, !tbaa !14
  %35 = icmp ne i32 %34, 0
  br i1 %35, label %43, label %36

36:                                               ; preds = %33
  %37 = load ptr, ptr %6, align 8, !tbaa !16
  %38 = getelementptr inbounds nuw %struct.malloc_state, ptr %37, i32 0, i32 15
  %39 = load i32, ptr %38, align 8, !tbaa !10
  %40 = zext i32 %39 to i64
  %41 = or i64 %40, 1
  %42 = trunc i64 %41 to i32
  store i32 %42, ptr %38, align 8, !tbaa !10
  br label %50

43:                                               ; preds = %33
  %44 = load ptr, ptr %6, align 8, !tbaa !16
  %45 = getelementptr inbounds nuw %struct.malloc_state, ptr %44, i32 0, i32 15
  %46 = load i32, ptr %45, align 8, !tbaa !10
  %47 = zext i32 %46 to i64
  %48 = and i64 %47, -2
  %49 = trunc i64 %48 to i32
  store i32 %49, ptr %45, align 8, !tbaa !10
  br label %50

50:                                               ; preds = %43, %36
  %51 = load ptr, ptr %6, align 8, !tbaa !16
  %52 = getelementptr inbounds nuw %struct.malloc_state, ptr %51, i32 0, i32 15
  %53 = load i32, ptr %52, align 8, !tbaa !10
  %54 = and i32 %53, 2
  %55 = icmp ne i32 %54, 0
  br i1 %55, label %56, label %59

56:                                               ; preds = %50
  %57 = load ptr, ptr %6, align 8, !tbaa !16
  %58 = getelementptr inbounds nuw %struct.malloc_state, ptr %57, i32 0, i32 16
  store atomic i32 0, ptr %58 release, align 4
  br label %59

59:                                               ; preds = %56, %50
  br label %60

60:                                               ; preds = %59, %24, %23, %18
  %61 = load i32, ptr %5, align 4, !tbaa !14
  call void @llvm.lifetime.end.p0(i64 8, ptr %6) #9
  call void @llvm.lifetime.end.p0(i64 4, ptr %5) #9
  ret i32 %61
}