; Function Attrs: nounwind uwtable
define hidden range(i32 0, 2) i32 @mspace_track_large_chunks(ptr noundef %0, i32 noundef %1) local_unnamed_addr #0 {
  %3 = getelementptr inbounds nuw i8, ptr %0, i64 880
  %4 = load i32, ptr %3, align 8, !tbaa !9
  %5 = and i32 %4, 2
  %.not = icmp eq i32 %5, 0
  br i1 %.not, label %spin_acquire_lock.exit, label %6

6:                                                ; preds = %2
  %7 = getelementptr inbounds nuw i8, ptr %0, i64 884
  %8 = atomicrmw xchg ptr %7, i32 1 seq_cst, align 4
  %.not10 = icmp eq i32 %8, 0
  br i1 %.not10, label %spin_acquire_lock.exit, label %.preheader

.preheader:                                       ; preds = %6, %.preheader.backedge
  %.0.i = phi i32 [ %12, %.preheader.backedge ], [ 0, %6 ]
  %9 = load volatile i32, ptr %7, align 4, !tbaa !13
  %.not.i = icmp eq i32 %9, 0
  br i1 %.not.i, label %10, label %.critedge.i

10:                                               ; preds = %.preheader
  %11 = atomicrmw xchg ptr %7, i32 1 seq_cst, align 4
  %.not2.i = icmp eq i32 %11, 0
  br i1 %.not2.i, label %spin_acquire_lock.exit, label %.critedge.i

.critedge.i:                                      ; preds = %10, %.preheader
  %12 = add nuw nsw i32 %.0.i, 1
  %13 = and i32 %12, 63
  %14 = icmp eq i32 %13, 0
  br i1 %14, label %15, label %.preheader.backedge

15:                                               ; preds = %.critedge.i
  %16 = tail call i32 @sched_yield() #17
  br label %.preheader.backedge

.preheader.backedge:                              ; preds = %15, %.critedge.i
  br label %.preheader, !llvm.loop !14

spin_acquire_lock.exit:                           ; preds = %10, %2, %6
  %17 = load i32, ptr %3, align 8, !tbaa !9
  %.not12 = icmp eq i32 %1, 0
  %18 = and i32 %17, -2
  %masksel = zext i1 %.not12 to i32
  %storemerge = or disjoint i32 %18, %masksel
  store i32 %storemerge, ptr %3, align 8, !tbaa !9
  %19 = and i32 %17, 2
  %.not13 = icmp eq i32 %19, 0
  br i1 %.not13, label %22, label %20

20:                                               ; preds = %spin_acquire_lock.exit
  %21 = getelementptr inbounds nuw i8, ptr %0, i64 884
  store atomic i32 0, ptr %21 release, align 4
  br label %22

22:                                               ; preds = %spin_acquire_lock.exit, %20
  %23 = and i32 %17, 1
  %spec.select = xor i32 %23, 1
  ret i32 %spec.select
}